target datalayout = "e-m:e-p270:32:32-p271:32:32-p272:64:64-i64:64-i128:128-f80:128-n8:16:32:64-S128"
target triple = "x86_64-unknown-linux-gnu"

%struct.__sigset_t = type { [16 x i64] }
%struct.CPUState = type { %struct.DeviceState, ptr, i32, i32, ptr, i32, i8, i8, ptr, i8, i8, i8, i8, i8, i8, i8, i8, i32, i32, i32, i32, i64, i64, i64, [1 x %struct.__jmp_buf_tag], %struct.QemuMutex, %struct.anon, ptr, i32, ptr, ptr, ptr, ptr, i32, i32, %union.anon, %union.anon.0, %union.anon.1, ptr, ptr, i64, i32, ptr, ptr, ptr, i32, i64, i32, %struct.QemuLockCnt, [1 x i64], ptr, i32, i32, i32, i32, i32, ptr, i8, i8, i64, i8, i8, ptr, [8 x i8], [0 x i8], %struct.CPUNegativeOffsetState }
%struct.DeviceState = type { %struct.Object, ptr, ptr, i8, i8, i64, ptr, i32, i8, ptr, %struct.NamedGPIOListHead, %struct.NamedClockListHead, %struct.BusStateHead, i32, i32, i32, %struct.ResettableState, ptr, %struct.MemReentrancyGuard }
%struct.Object = type { ptr, ptr, ptr, i32, ptr }
%struct.NamedGPIOListHead = type { ptr }
%struct.NamedClockListHead = type { ptr }
%struct.BusStateHead = type { ptr }
%struct.ResettableState = type { i32, i8, i8 }
%struct.MemReentrancyGuard = type { i8 }
%struct.__jmp_buf_tag = type { [8 x i64], i32, %struct.__sigset_t }
%struct.QemuMutex = type { %union.pthread_mutex_t, i8 }
%union.pthread_mutex_t = type { %struct.__pthread_mutex_s }
%struct.__pthread_mutex_s = type { i32, i32, i32, i32, i32, i16, i16, %struct.__pthread_internal_list }
%struct.__pthread_internal_list = type { ptr, ptr }
%struct.anon = type { ptr, ptr }
%union.anon = type { %struct.QTailQLink }
%struct.QTailQLink = type { ptr, ptr }
%union.anon.0 = type { %struct.QTailQLink }
%union.anon.1 = type { %struct.QTailQLink }
%struct.QemuLockCnt = type { i32 }
%struct.CPUNegativeOffsetState = type { %struct.CPUTLB, %union.IcountDecr, i8, [11 x i8] }
%struct.CPUTLB = type { %struct.CPUTLBCommon, [16 x %struct.CPUTLBDesc], [16 x %struct.CPUTLBDescFast] }
%struct.CPUTLBCommon = type { %struct.QemuSpin, i16, i64, i64, i64 }
%struct.QemuSpin = type { i32 }
%struct.CPUTLBDesc = type { i64, i64, i64, i64, i64, i64, [8 x %union.CPUTLBEntry], [8 x %struct.CPUTLBEntryFull], ptr }
%union.CPUTLBEntry = type { %struct.anon.2 }
%struct.anon.2 = type { i64, i64, i64, i64 }
%struct.CPUTLBEntryFull = type { i64, i64, %struct.MemTxAttrs, i8, i8, [3 x i8], %union.anon.3 }
%struct.MemTxAttrs = type { i32 }
%union.anon.3 = type { %struct.anon.4 }
%struct.anon.4 = type { i8, i8, i8 }
%struct.CPUTLBDescFast = type { i64, ptr }
%union.IcountDecr = type { i32 }
%struct.TaskState = type { i32, i32, i64, i64, i64, i64, i32, ptr, ptr, %struct.emulated_sigtable, [64 x %struct.emulated_sigtable], %struct.__sigset_t, %struct.__sigset_t, i32, i32, %struct.target_sigaltstack, i64 }
%struct.emulated_sigtable = type { i32, %struct.target_siginfo }
%struct.target_siginfo = type { i32, i32, i32, %union.anon.6 }
%union.anon.6 = type { %struct.anon.10, [80 x i8] }
%struct.anon.10 = type { i32, i32, i32, i64, i64 }
%struct.target_sigaltstack = type { i64, i32, i64 }
%struct.timeval = type { i64, i64 }
%struct.rlimit = type { i64, i64 }
%struct.linux_binprm = type { [1024 x i8], %struct.ImageSource, i64, i32, i32, i32, i32, ptr, ptr, ptr, ptr, [8 x i8] }
%struct.ImageSource = type { ptr, i32, i32 }

@target_to_host_signal_table = internal global [65 x i8] zeroinitializer, align 16
@trace_events_enabled_count = external global i32, align 4
@message_with_timestamp = external global i8, align 1
@qemu_loglevel = external global i32, align 4
@stderr = external global ptr, align 8
@.str.39 = private unnamed_addr constant [43 x i8] c"qemu: uncaught target signal %d (%s) - %s\0A\00", align 1
@.str.40 = private unnamed_addr constant [12 x i8] c"core dumped\00", align 1
@_TRACE_USER_DUMP_CORE_AND_ABORT_DSTATE = external global i16, align 2
@.str.41 = private unnamed_addr constant [66 x i8] c"%d@%zu.%06zu:user_dump_core_and_abort env=%p signal %d (host %d)\0A\00", align 1
@.str.42 = private unnamed_addr constant [53 x i8] c"user_dump_core_and_abort env=%p signal %d (host %d)\0A\00", align 1

; Function Attrs: nounwind sspstrong uwtable
define internal zeroext i1 @qemu_loglevel_mask(i32 noundef %mask) #0 {
entry:
  %mask.addr = alloca i32, align 4
  store i32 %mask, ptr %mask.addr, align 4
  %0 = load i32, ptr @qemu_loglevel, align 4
  %1 = load i32, ptr %mask.addr, align 4
  %and = and i32 %0, %1
  %cmp = icmp ne i32 %and, 0
  ret i1 %cmp
}

; Function Attrs: nounwind sspstrong uwtable
define internal void @_nocheck__trace_user_dump_core_and_abort(ptr noundef %env, i32 noundef %target_sig, i32 noundef %host_sig) #0 {
entry:
  %env.addr = alloca ptr, align 8
  %target_sig.addr = alloca i32, align 4
  %host_sig.addr = alloca i32, align 4
  %_now = alloca %struct.timeval, align 8
  store ptr %env, ptr %env.addr, align 8
  store i32 %target_sig, ptr %target_sig.addr, align 4
  store i32 %host_sig, ptr %host_sig.addr, align 4
  %0 = load i32, ptr @trace_events_enabled_count, align 4
  %tobool = icmp ne i32 %0, 0
  %lnot = xor i1 %tobool, true
  %lnot1 = xor i1 %lnot, true
  %lnot.ext = zext i1 %lnot1 to i32
  %conv = sext i32 %lnot.ext to i64
  %tobool2 = icmp ne i64 %conv, 0
  br i1 %tobool2, label %land.lhs.true, label %if.end11

land.lhs.true:                                    ; preds = %entry
  %1 = load i16, ptr @_TRACE_USER_DUMP_CORE_AND_ABORT_DSTATE, align 2
  %conv3 = zext i16 %1 to i32
  %tobool4 = icmp ne i32 %conv3, 0
  br i1 %tobool4, label %land.lhs.true5, label %if.end11

land.lhs.true5:                                   ; preds = %land.lhs.true
  %call = call zeroext i1 @qemu_loglevel_mask(i32 noundef 32768)
  br i1 %call, label %if.then, label %if.end11

if.then:                                          ; preds = %land.lhs.true5
  %2 = load i8, ptr @message_with_timestamp, align 1
  %tobool7 = trunc i8 %2 to i1
  br i1 %tobool7, label %if.then8, label %if.else

if.then8:                                         ; preds = %if.then
  %call9 = call i32 @gettimeofday(ptr noundef %_now, ptr noundef null) #9
  %call10 = call i32 @qemu_get_thread_id()
  %tv_sec = getelementptr inbounds %struct.timeval, ptr %_now, i32 0, i32 0
  %3 = load i64, ptr %tv_sec, align 8
  %tv_usec = getelementptr inbounds %struct.timeval, ptr %_now, i32 0, i32 1
  %4 = load i64, ptr %tv_usec, align 8
  %5 = load ptr, ptr %env.addr, align 8
  %6 = load i32, ptr %target_sig.addr, align 4
  %7 = load i32, ptr %host_sig.addr, align 4
  call void (ptr, ...) @qemu_log(ptr noundef @.str.41, i32 noundef %call10, i64 noundef %3, i64 noundef %4, ptr noundef %5, i32 noundef %6, i32 noundef %7)
  br label %if.end

if.else:                                          ; preds = %if.then
  %8 = load ptr, ptr %env.addr, align 8
  %9 = load i32, ptr %target_sig.addr, align 4
  %10 = load i32, ptr %host_sig.addr, align 4
  call void (ptr, ...) @qemu_log(ptr noundef @.str.42, ptr noundef %8, i32 noundef %9, i32 noundef %10)
  br label %if.end

if.end:                                           ; preds = %if.else, %if.then8
  br label %if.end11

if.end11:                                         ; preds = %if.end, %land.lhs.true5, %land.lhs.true, %entry
  ret void
}

; Function Attrs: nounwind sspstrong uwtable
define internal i32 @core_dump_signal(i32 noundef %sig) #0 {
entry:
  %retval = alloca i32, align 4
  %sig.addr = alloca i32, align 4
  store i32 %sig, ptr %sig.addr, align 4
  %0 = load i32, ptr %sig.addr, align 4
  switch i32 %0, label %sw.default [
    i32 6, label %sw.bb
    i32 8, label %sw.bb
    i32 4, label %sw.bb
    i32 3, label %sw.bb
    i32 11, label %sw.bb
    i32 5, label %sw.bb
    i32 7, label %sw.bb
  ]

sw.bb:                                            ; preds = %entry, %entry, %entry, %entry, %entry, %entry, %entry
  store i32 1, ptr %retval, align 4
  br label %return

sw.default:                                       ; preds = %entry
  store i32 0, ptr %retval, align 4
  br label %return

return:                                           ; preds = %sw.default, %sw.bb
  %1 = load i32, ptr %retval, align 4
  ret i32 %1
}

; Function Attrs: nounwind sspstrong uwtable
define internal void @trace_user_dump_core_and_abort(ptr noundef %env, i32 noundef %target_sig, i32 noundef %host_sig) #0 {
entry:
  %env.addr = alloca ptr, align 8
  %target_sig.addr = alloca i32, align 4
  %host_sig.addr = alloca i32, align 4
  store ptr %env, ptr %env.addr, align 8
  store i32 %target_sig, ptr %target_sig.addr, align 4
  store i32 %host_sig, ptr %host_sig.addr, align 4
  %0 = load ptr, ptr %env.addr, align 8
  %1 = load i32, ptr %target_sig.addr, align 4
  %2 = load i32, ptr %host_sig.addr, align 4
  call void @_nocheck__trace_user_dump_core_and_abort(ptr noundef %0, i32 noundef %1, i32 noundef %2)
  ret void
}

; Function Attrs: nounwind sspstrong uwtable
define dso_local i32 @target_to_host_signal(i32 noundef %sig) #0 {
entry:
  %retval = alloca i32, align 4
  %sig.addr = alloca i32, align 4
  store i32 %sig, ptr %sig.addr, align 4
  %0 = load i32, ptr %sig.addr, align 4
  %cmp = icmp slt i32 %0, 1
  br i1 %cmp, label %if.then, label %if.end

if.then:                                          ; preds = %entry
  %1 = load i32, ptr %sig.addr, align 4
  store i32 %1, ptr %retval, align 4
  br label %return

if.end:                                           ; preds = %entry
  %2 = load i32, ptr %sig.addr, align 4
  %cmp1 = icmp sgt i32 %2, 64
  br i1 %cmp1, label %if.then2, label %if.end3

if.then2:                                         ; preds = %if.end
  store i32 65, ptr %retval, align 4
  br label %return

if.end3:                                          ; preds = %if.end
  %3 = load i32, ptr %sig.addr, align 4
  %idxprom = sext i32 %3 to i64
  %arrayidx = getelementptr [65 x i8], ptr @target_to_host_signal_table, i64 0, i64 %idxprom
  %4 = load i8, ptr %arrayidx, align 1
  %conv = zext i8 %4 to i32
  store i32 %conv, ptr %retval, align 4
  br label %return

return:                                           ; preds = %if.end3, %if.then2, %if.then
  %5 = load i32, ptr %retval, align 4
  ret i32 %5
}

; Function Attrs: nounwind sspstrong uwtable
define internal ptr @env_cpu(ptr noundef %env) #0 {
entry:
  %env.addr = alloca ptr, align 8
  store ptr %env, ptr %env.addr, align 8
  %0 = load ptr, ptr %env.addr, align 8
  %add.ptr = getelementptr i8, ptr %0, i64 -10176
  ret ptr %add.ptr
}

; Function Attrs: noreturn nounwind sspstrong uwtable
define internal void @dump_core_and_abort(ptr noundef %env, i32 noundef %target_sig) #6 {
entry:
  %env.addr = alloca ptr, align 8
  %target_sig.addr = alloca i32, align 4
  %cpu = alloca ptr, align 8
  %ts = alloca ptr, align 8
  %host_sig = alloca i32, align 4
  %core_dumped = alloca i32, align 4
  %nodump = alloca %struct.rlimit, align 8
  store ptr %env, ptr %env.addr, align 8
  store i32 %target_sig, ptr %target_sig.addr, align 4
  %0 = load ptr, ptr %env.addr, align 8
  %call = call ptr @env_cpu(ptr noundef %0)
  store ptr %call, ptr %cpu, align 8
  %1 = load ptr, ptr %cpu, align 8
  %opaque = getelementptr inbounds %struct.CPUState, ptr %1, i32 0, i32 39
  %2 = load ptr, ptr %opaque, align 16
  store ptr %2, ptr %ts, align 8
  store i32 0, ptr %core_dumped, align 4
  %3 = load i32, ptr %target_sig.addr, align 4
  %cmp = icmp eq i32 %3, 6
  br i1 %cmp, label %if.then, label %if.else

if.then:                                          ; preds = %entry
  store i32 6, ptr %host_sig, align 4
  br label %if.end

if.else:                                          ; preds = %entry
  %4 = load i32, ptr %target_sig.addr, align 4
  %call1 = call i32 @target_to_host_signal(i32 noundef %4)
  store i32 %call1, ptr %host_sig, align 4
  br label %if.end

if.end:                                           ; preds = %if.else, %if.then
  %5 = load ptr, ptr %env.addr, align 8
  %6 = load i32, ptr %target_sig.addr, align 4
  %7 = load i32, ptr %host_sig, align 4
  call void @trace_user_dump_core_and_abort(ptr noundef %5, i32 noundef %6, i32 noundef %7)
  %8 = load ptr, ptr %env.addr, align 8
  %9 = load i32, ptr %target_sig.addr, align 4
  call void @gdb_signalled(ptr noundef %8, i32 noundef %9)
  %10 = load i32, ptr %target_sig.addr, align 4
  %call2 = call i32 @core_dump_signal(i32 noundef %10)
  %tobool = icmp ne i32 %call2, 0
  br i1 %tobool, label %land.lhs.true, label %if.end9

land.lhs.true:                                    ; preds = %if.end
  %11 = load ptr, ptr %ts, align 8
  %bprm = getelementptr inbounds %struct.TaskState, ptr %11, i32 0, i32 8
  %12 = load ptr, ptr %bprm, align 8
  %core_dump = getelementptr inbounds %struct.linux_binprm, ptr %12, i32 0, i32 10
  %13 = load ptr, ptr %core_dump, align 16
  %cmp3 = icmp ne ptr %13, null
  br i1 %cmp3, label %if.then4, label %if.end9

if.then4:                                         ; preds = %land.lhs.true
  call void @stop_all_tasks()
  %14 = load ptr, ptr %ts, align 8
  %bprm5 = getelementptr inbounds %struct.TaskState, ptr %14, i32 0, i32 8
  %15 = load ptr, ptr %bprm5, align 8
  %core_dump6 = getelementptr inbounds %struct.linux_binprm, ptr %15, i32 0, i32 10
  %16 = load ptr, ptr %core_dump6, align 16
  %17 = load i32, ptr %target_sig.addr, align 4
  %18 = load ptr, ptr %env.addr, align 8
  %call7 = call i32 %16(i32 noundef %17, ptr noundef %18)
  %cmp8 = icmp eq i32 %call7, 0
  %conv = zext i1 %cmp8 to i32
  store i32 %conv, ptr %core_dumped, align 4
  br label %if.end9

if.end9:                                          ; preds = %if.then4, %land.lhs.true, %if.end
  %19 = load i32, ptr %core_dumped, align 4
  %tobool10 = icmp ne i32 %19, 0
  br i1 %tobool10, label %if.then11, label %if.end16

if.then11:                                        ; preds = %if.end9
  %call12 = call i32 @getrlimit64(i32 noundef 4, ptr noundef %nodump) #9
  %rlim_cur = getelementptr inbounds %struct.rlimit, ptr %nodump, i32 0, i32 0
  store i64 0, ptr %rlim_cur, align 8
  %call13 = call i32 @setrlimit64(i32 noundef 4, ptr noundef %nodump) #9
  %20 = load ptr, ptr @stderr, align 8
  %21 = load i32, ptr %target_sig.addr, align 4
  %22 = load i32, ptr %host_sig, align 4
  %call14 = call ptr @strsignal(i32 noundef %22) #9
  %call15 = call i32 (ptr, ptr, ...) @fprintf(ptr noundef %20, ptr noundef @.str.39, i32 noundef %21, ptr noundef %call14, ptr noundef @.str.40)
  br label %if.end16

if.end16:                                         ; preds = %if.then11, %if.end9
  %23 = load ptr, ptr %env.addr, align 8
  %24 = load i32, ptr %target_sig.addr, align 4
  %add = add i32 128, %24
  call void @preexit_cleanup(ptr noundef %23, i32 noundef %add)
  %25 = load i32, ptr %host_sig, align 4
  call void @die_with_signal(i32 noundef %25) #10
  unreachable
}