; Function Attrs: noreturn nounwind sspstrong uwtable
define internal fastcc void @dump_core_and_abort(ptr noundef %env, i32 noundef %target_sig) unnamed_addr #11 {
entry:
  %_now.i.i17 = alloca %struct.timeval, align 8
  %_now.i.i = alloca %struct.timeval, align 8
  %nodump = alloca %struct.rlimit, align 8
  %opaque = getelementptr i8, ptr %env, i64 -9552
  %0 = load ptr, ptr %opaque, align 16
  %cmp = icmp eq i32 %target_sig, 6
  br i1 %cmp, label %if.then.split, label %if.else

if.then.split:                                    ; preds = %entry
  call void @llvm.lifetime.start.p0(i64 16, ptr nonnull %_now.i.i)
  %1 = load i32, ptr @trace_events_enabled_count, align 4
  %tobool.i.i = icmp ne i32 %1, 0
  %2 = load i16, ptr @_TRACE_USER_DUMP_CORE_AND_ABORT_DSTATE, align 2
  %tobool4.i.i = icmp ne i16 %2, 0
  %or.cond.i.i = select i1 %tobool.i.i, i1 %tobool4.i.i, i1 false
  br i1 %or.cond.i.i, label %land.lhs.true5.i.i, label %trace_user_dump_core_and_abort.exit

land.lhs.true5.i.i:                               ; preds = %if.then.split
  %3 = load i32, ptr @qemu_loglevel, align 4
  %and.i.i.i = and i32 %3, 32768
  %cmp.i.not.i.i = icmp eq i32 %and.i.i.i, 0
  br i1 %cmp.i.not.i.i, label %trace_user_dump_core_and_abort.exit, label %if.then.i.i

if.then.i.i:                                      ; preds = %land.lhs.true5.i.i
  %4 = load i8, ptr @message_with_timestamp, align 1
  %tobool7.i.i = trunc i8 %4 to i1
  br i1 %tobool7.i.i, label %if.then8.i.i, label %if.else.i.i

if.then8.i.i:                                     ; preds = %if.then.i.i
  %call9.i.i = call i32 @gettimeofday(ptr noundef nonnull %_now.i.i, ptr noundef null) #16
  %call10.i.i = tail call i32 @qemu_get_thread_id() #16
  %5 = load i64, ptr %_now.i.i, align 8
  %tv_usec.i.i = getelementptr inbounds nuw i8, ptr %_now.i.i, i64 8
  %6 = load i64, ptr %tv_usec.i.i, align 8
  tail call void (ptr, ...) @qemu_log(ptr noundef nonnull @.str.41, i32 noundef %call10.i.i, i64 noundef %5, i64 noundef %6, ptr noundef nonnull %env, i32 noundef 6, i32 noundef range(i32 -2147483648, 256) 6) #16
  br label %trace_user_dump_core_and_abort.exit

if.else.i.i:                                      ; preds = %if.then.i.i
  tail call void (ptr, ...) @qemu_log(ptr noundef nonnull @.str.42, ptr noundef nonnull %env, i32 noundef 6, i32 noundef range(i32 -2147483648, 256) 6) #16
  br label %trace_user_dump_core_and_abort.exit

trace_user_dump_core_and_abort.exit:              ; preds = %if.then.split, %land.lhs.true5.i.i, %if.then8.i.i, %if.else.i.i
  call void @llvm.lifetime.end.p0(i64 16, ptr nonnull %_now.i.i)
  tail call void @gdb_signalled(ptr noundef nonnull %env, i32 noundef 6) #16
  br label %land.lhs.true

if.else:                                          ; preds = %entry
  %cmp.i = icmp slt i32 %target_sig, 1
  br i1 %cmp.i, label %target_to_host_signal.exit, label %if.end.i

if.end.i:                                         ; preds = %if.else
  %cmp1.i = icmp samesign ugt i32 %target_sig, 64
  br i1 %cmp1.i, label %target_to_host_signal.exit, label %if.end3.i

if.end3.i:                                        ; preds = %if.end.i
  %idxprom.i = zext nneg i32 %target_sig to i64
  %arrayidx.i = getelementptr [65 x i8], ptr @target_to_host_signal_table, i64 0, i64 %idxprom.i
  %7 = load i8, ptr %arrayidx.i, align 1
  %conv.i = zext i8 %7 to i32
  br label %target_to_host_signal.exit

target_to_host_signal.exit:                       ; preds = %if.else, %if.end.i, %if.end3.i
  %retval.0.i = phi i32 [ %conv.i, %if.end3.i ], [ %target_sig, %if.else ], [ 65, %if.end.i ]
  call void @llvm.lifetime.start.p0(i64 16, ptr nonnull %_now.i.i17)
  %8 = load i32, ptr @trace_events_enabled_count, align 4
  %tobool.i.i18 = icmp ne i32 %8, 0
  %9 = load i16, ptr @_TRACE_USER_DUMP_CORE_AND_ABORT_DSTATE, align 2
  %tobool4.i.i19 = icmp ne i16 %9, 0
  %or.cond.i.i20 = select i1 %tobool.i.i18, i1 %tobool4.i.i19, i1 false
  br i1 %or.cond.i.i20, label %land.lhs.true5.i.i21, label %trace_user_dump_core_and_abort.exit31

land.lhs.true5.i.i21:                             ; preds = %target_to_host_signal.exit
  %10 = load i32, ptr @qemu_loglevel, align 4
  %and.i.i.i22 = and i32 %10, 32768
  %cmp.i.not.i.i23 = icmp eq i32 %and.i.i.i22, 0
  br i1 %cmp.i.not.i.i23, label %trace_user_dump_core_and_abort.exit31, label %if.then.i.i24

if.then.i.i24:                                    ; preds = %land.lhs.true5.i.i21
  %11 = load i8, ptr @message_with_timestamp, align 1
  %tobool7.i.i25 = trunc i8 %11 to i1
  br i1 %tobool7.i.i25, label %if.then8.i.i27, label %if.else.i.i26

if.then8.i.i27:                                   ; preds = %if.then.i.i24
  %call9.i.i28 = call i32 @gettimeofday(ptr noundef nonnull %_now.i.i17, ptr noundef null) #16
  %call10.i.i29 = tail call i32 @qemu_get_thread_id() #16
  %12 = load i64, ptr %_now.i.i17, align 8
  %tv_usec.i.i30 = getelementptr inbounds nuw i8, ptr %_now.i.i17, i64 8
  %13 = load i64, ptr %tv_usec.i.i30, align 8
  tail call void (ptr, ...) @qemu_log(ptr noundef nonnull @.str.41, i32 noundef %call10.i.i29, i64 noundef %12, i64 noundef %13, ptr noundef nonnull %env, i32 noundef %target_sig, i32 noundef range(i32 -2147483648, 256) %retval.0.i) #16
  br label %trace_user_dump_core_and_abort.exit31

if.else.i.i26:                                    ; preds = %if.then.i.i24
  tail call void (ptr, ...) @qemu_log(ptr noundef nonnull @.str.42, ptr noundef nonnull %env, i32 noundef %target_sig, i32 noundef range(i32 -2147483648, 256) %retval.0.i) #16
  br label %trace_user_dump_core_and_abort.exit31

trace_user_dump_core_and_abort.exit31:            ; preds = %target_to_host_signal.exit, %land.lhs.true5.i.i21, %if.then8.i.i27, %if.else.i.i26
  call void @llvm.lifetime.end.p0(i64 16, ptr nonnull %_now.i.i17)
  tail call void @gdb_signalled(ptr noundef nonnull %env, i32 noundef %target_sig) #16
  switch i32 %target_sig, label %if.end16 [
    i32 6, label %land.lhs.true
    i32 8, label %land.lhs.true
    i32 4, label %land.lhs.true
    i32 3, label %land.lhs.true
    i32 11, label %land.lhs.true
    i32 5, label %land.lhs.true
    i32 7, label %land.lhs.true
  ]

land.lhs.true:                                    ; preds = %trace_user_dump_core_and_abort.exit, %trace_user_dump_core_and_abort.exit31, %trace_user_dump_core_and_abort.exit31, %trace_user_dump_core_and_abort.exit31, %trace_user_dump_core_and_abort.exit31, %trace_user_dump_core_and_abort.exit31, %trace_user_dump_core_and_abort.exit31, %trace_user_dump_core_and_abort.exit31
  %host_sig.0.ph = phi i32 [ %retval.0.i, %trace_user_dump_core_and_abort.exit31 ], [ %retval.0.i, %trace_user_dump_core_and_abort.exit31 ], [ %retval.0.i, %trace_user_dump_core_and_abort.exit31 ], [ %retval.0.i, %trace_user_dump_core_and_abort.exit31 ], [ %retval.0.i, %trace_user_dump_core_and_abort.exit31 ], [ %retval.0.i, %trace_user_dump_core_and_abort.exit31 ], [ %retval.0.i, %trace_user_dump_core_and_abort.exit31 ], [ 6, %trace_user_dump_core_and_abort.exit ]
  %bprm = getelementptr inbounds nuw i8, ptr %0, i64 56
  %14 = load ptr, ptr %bprm, align 8
  %core_dump = getelementptr inbounds nuw i8, ptr %14, i64 1088
  %15 = load ptr, ptr %core_dump, align 16
  %cmp3.not = icmp eq ptr %15, null
  br i1 %cmp3.not, label %if.end16, label %if.then4

if.then4:                                         ; preds = %land.lhs.true
  tail call void @stop_all_tasks() #16
  %16 = load ptr, ptr %bprm, align 8
  %core_dump6 = getelementptr inbounds nuw i8, ptr %16, i64 1088
  %17 = load ptr, ptr %core_dump6, align 16
  %call7 = tail call i32 %17(i32 noundef %target_sig, ptr noundef nonnull %env) #16
  %cmp8.not = icmp eq i32 %call7, 0
  br i1 %cmp8.not, label %if.then11, label %if.end16

if.then11:                                        ; preds = %if.then4
  %call12 = call i32 @getrlimit64(i32 noundef 4, ptr noundef nonnull %nodump) #16
  store i64 0, ptr %nodump, align 8
  %call13 = call i32 @setrlimit64(i32 noundef 4, ptr noundef nonnull %nodump) #16
  %18 = load ptr, ptr @stderr, align 8
  %call14 = call ptr @strsignal(i32 noundef %host_sig.0.ph) #16
  %call15 = call i32 (ptr, ptr, ...) @fprintf(ptr noundef %18, ptr noundef nonnull @.str.39, i32 noundef %target_sig, ptr noundef %call14, ptr noundef nonnull @.str.40) #19
  br label %if.end16

if.end16:                                         ; preds = %trace_user_dump_core_and_abort.exit31, %land.lhs.true, %if.then11, %if.then4
  %host_sig.037 = phi i32 [ %host_sig.0.ph, %land.lhs.true ], [ %host_sig.0.ph, %if.then11 ], [ %host_sig.0.ph, %if.then4 ], [ %retval.0.i, %trace_user_dump_core_and_abort.exit31 ]
  %add = add i32 %target_sig, 128
  call void @preexit_cleanup(ptr noundef nonnull %env, i32 noundef %add) #16
  call fastcc void @die_with_signal(i32 noundef %host_sig.037) #18
  unreachable
}